target datalayout = "e-m:e-p270:32:32-p271:32:32-p272:64:64-i64:64-i128:128-f80:128-n8:16:32:64-S128"
target triple = "x86_64-pc-linux-gnu"

%struct.string_list = type { ptr, i64, i64, i8, ptr }
%struct.string_list_item = type { ptr, ptr }

@.str.6 = private unnamed_addr constant [27 x i8] c"size_t overflow: %lu * %lu\00", align 1

; Function Attrs: inlinehint nounwind uwtable
define internal i64 @st_mult(i64 noundef %0, i64 noundef %1) #5 {
  %3 = alloca i64, align 8
  %4 = alloca i64, align 8
  store i64 %0, ptr %3, align 8, !tbaa !28
  store i64 %1, ptr %4, align 8, !tbaa !28
  %5 = load i64, ptr %3, align 8, !tbaa !28
  %6 = icmp ne i64 %5, 0
  br i1 %6, label %7, label %15

7:                                                ; preds = %2
  %8 = load i64, ptr %4, align 8, !tbaa !28
  %9 = load i64, ptr %3, align 8, !tbaa !28
  %10 = udiv i64 -1, %9
  %11 = icmp ugt i64 %8, %10
  br i1 %11, label %12, label %15

12:                                               ; preds = %7
  %13 = load i64, ptr %3, align 8, !tbaa !28
  %14 = load i64, ptr %4, align 8, !tbaa !28
  call void (ptr, ...) @die(ptr noundef @.str.6, i64 noundef %13, i64 noundef %14) #10
  unreachable

15:                                               ; preds = %7, %2
  %16 = load i64, ptr %3, align 8, !tbaa !28
  %17 = load i64, ptr %4, align 8, !tbaa !28
  %18 = mul i64 %16, %17
  ret i64 %18
}

; Function Attrs: nounwind uwtable
define dso_local ptr @string_list_append_nodup(ptr noundef %0, ptr noundef %1) #0 {
  %3 = alloca ptr, align 8
  %4 = alloca ptr, align 8
  %5 = alloca ptr, align 8
  store ptr %0, ptr %3, align 8, !tbaa !4
  store ptr %1, ptr %4, align 8, !tbaa !9
  call void @llvm.lifetime.start.p0(i64 8, ptr %5) #9
  br label %6

6:                                                ; preds = %2
  %7 = load ptr, ptr %3, align 8, !tbaa !4
  %8 = getelementptr inbounds nuw %struct.string_list, ptr %7, i32 0, i32 1
  %9 = load i64, ptr %8, align 8, !tbaa !17
  %10 = add i64 %9, 1
  %11 = load ptr, ptr %3, align 8, !tbaa !4
  %12 = getelementptr inbounds nuw %struct.string_list, ptr %11, i32 0, i32 2
  %13 = load i64, ptr %12, align 8, !tbaa !18
  %14 = icmp ugt i64 %10, %13
  br i1 %14, label %15, label %54

15:                                               ; preds = %6
  %16 = load ptr, ptr %3, align 8, !tbaa !4
  %17 = getelementptr inbounds nuw %struct.string_list, ptr %16, i32 0, i32 2
  %18 = load i64, ptr %17, align 8, !tbaa !18
  %19 = add i64 %18, 16
  %20 = mul i64 %19, 3
  %21 = udiv i64 %20, 2
  %22 = load ptr, ptr %3, align 8, !tbaa !4
  %23 = getelementptr inbounds nuw %struct.string_list, ptr %22, i32 0, i32 1
  %24 = load i64, ptr %23, align 8, !tbaa !17
  %25 = add i64 %24, 1
  %26 = icmp ult i64 %21, %25
  br i1 %26, label %27, label %34

27:                                               ; preds = %15
  %28 = load ptr, ptr %3, align 8, !tbaa !4
  %29 = getelementptr inbounds nuw %struct.string_list, ptr %28, i32 0, i32 1
  %30 = load i64, ptr %29, align 8, !tbaa !17
  %31 = add i64 %30, 1
  %32 = load ptr, ptr %3, align 8, !tbaa !4
  %33 = getelementptr inbounds nuw %struct.string_list, ptr %32, i32 0, i32 2
  store i64 %31, ptr %33, align 8, !tbaa !18
  br label %43

34:                                               ; preds = %15
  %35 = load ptr, ptr %3, align 8, !tbaa !4
  %36 = getelementptr inbounds nuw %struct.string_list, ptr %35, i32 0, i32 2
  %37 = load i64, ptr %36, align 8, !tbaa !18
  %38 = add i64 %37, 16
  %39 = mul i64 %38, 3
  %40 = udiv i64 %39, 2
  %41 = load ptr, ptr %3, align 8, !tbaa !4
  %42 = getelementptr inbounds nuw %struct.string_list, ptr %41, i32 0, i32 2
  store i64 %40, ptr %42, align 8, !tbaa !18
  br label %43

43:                                               ; preds = %34, %27
  %44 = load ptr, ptr %3, align 8, !tbaa !4
  %45 = getelementptr inbounds nuw %struct.string_list, ptr %44, i32 0, i32 0
  %46 = load ptr, ptr %45, align 8, !tbaa !13
  %47 = load ptr, ptr %3, align 8, !tbaa !4
  %48 = getelementptr inbounds nuw %struct.string_list, ptr %47, i32 0, i32 2
  %49 = load i64, ptr %48, align 8, !tbaa !18
  %50 = call i64 @st_mult(i64 noundef 16, i64 noundef %49)
  %51 = call ptr @xrealloc(ptr noundef %46, i64 noundef %50)
  %52 = load ptr, ptr %3, align 8, !tbaa !4
  %53 = getelementptr inbounds nuw %struct.string_list, ptr %52, i32 0, i32 0
  store ptr %51, ptr %53, align 8, !tbaa !13
  br label %54

54:                                               ; preds = %43, %6
  br label %55

55:                                               ; preds = %54
  br label %56

56:                                               ; preds = %55
  %57 = load ptr, ptr %3, align 8, !tbaa !4
  %58 = getelementptr inbounds nuw %struct.string_list, ptr %57, i32 0, i32 0
  %59 = load ptr, ptr %58, align 8, !tbaa !13
  %60 = load ptr, ptr %3, align 8, !tbaa !4
  %61 = getelementptr inbounds nuw %struct.string_list, ptr %60, i32 0, i32 1
  %62 = load i64, ptr %61, align 8, !tbaa !17
  %63 = add i64 %62, 1
  store i64 %63, ptr %61, align 8, !tbaa !17
  %64 = getelementptr inbounds nuw %struct.string_list_item, ptr %59, i64 %62
  store ptr %64, ptr %5, align 8, !tbaa !33
  %65 = load ptr, ptr %4, align 8, !tbaa !9
  %66 = load ptr, ptr %5, align 8, !tbaa !33
  %67 = getelementptr inbounds nuw %struct.string_list_item, ptr %66, i32 0, i32 0
  store ptr %65, ptr %67, align 8, !tbaa !19
  %68 = load ptr, ptr %5, align 8, !tbaa !33
  %69 = getelementptr inbounds nuw %struct.string_list_item, ptr %68, i32 0, i32 1
  store ptr null, ptr %69, align 8, !tbaa !21
  %70 = load ptr, ptr %5, align 8, !tbaa !33
  call void @llvm.lifetime.end.p0(i64 8, ptr %5) #9
  ret ptr %70
}

; Function Attrs: nounwind uwtable
define dso_local ptr @string_list_append(ptr noundef %0, ptr noundef %1) #0 {
  %3 = alloca ptr, align 8
  %4 = alloca ptr, align 8
  store ptr %0, ptr %3, align 8, !tbaa !4
  store ptr %1, ptr %4, align 8, !tbaa !9
  %5 = load ptr, ptr %3, align 8, !tbaa !4
  %6 = load ptr, ptr %3, align 8, !tbaa !4
  %7 = getelementptr inbounds nuw %struct.string_list, ptr %6, i32 0, i32 3
  %8 = load i8, ptr %7, align 8
  %9 = and i8 %8, 1
  %10 = zext i8 %9 to i32
  %11 = icmp ne i32 %10, 0
  br i1 %11, label %12, label %15

12:                                               ; preds = %2
  %13 = load ptr, ptr %4, align 8, !tbaa !9
  %14 = call ptr @xstrdup(ptr noundef %13)
  br label %17

15:                                               ; preds = %2
  %16 = load ptr, ptr %4, align 8, !tbaa !9
  br label %17

17:                                               ; preds = %15, %12
  %18 = phi ptr [ %14, %12 ], [ %16, %15 ]
  %19 = call ptr @string_list_append_nodup(ptr noundef %5, ptr noundef %18)
  ret ptr %19
}