; Function Attrs: nounwind uwtable
define dso_local noundef ptr @string_list_append(ptr noundef captures(none) %0, ptr noundef %1) local_unnamed_addr #4 {
  %3 = getelementptr inbounds nuw i8, ptr %0, i64 24
  %4 = load i8, ptr %3, align 8
  %5 = and i8 %4, 1
  %.not = icmp eq i8 %5, 0
  br i1 %.not, label %8, label %6

6:                                                ; preds = %2
  %7 = tail call ptr @xstrdup(ptr noundef %1) #11
  br label %8

8:                                                ; preds = %2, %6
  %9 = phi ptr [ %7, %6 ], [ %1, %2 ]
  %10 = getelementptr inbounds nuw i8, ptr %0, i64 8
  %11 = load i64, ptr %10, align 8, !tbaa !4
  %12 = add i64 %11, 1
  %13 = getelementptr inbounds nuw i8, ptr %0, i64 16
  %14 = load i64, ptr %13, align 8, !tbaa !19
  %15 = icmp ugt i64 %12, %14
  br i1 %15, label %16, label %._crit_edge.i

._crit_edge.i:                                    ; preds = %8
  %.pre.i = load ptr, ptr %0, align 8, !tbaa !13
  br label %string_list_append_nodup.exit

16:                                               ; preds = %8
  %17 = mul i64 %14, 3
  %18 = add i64 %17, 48
  %19 = lshr i64 %18, 1
  %..i = tail call i64 @llvm.umax.i64(i64 %19, i64 %12)
  store i64 %..i, ptr %13, align 8, !tbaa !19
  %20 = icmp ugt i64 %..i, 1152921504606846975
  br i1 %20, label %21, label %st_mult.exit.i

21:                                               ; preds = %16
  tail call void (ptr, ...) @die(ptr noundef nonnull @.str.6, i64 noundef 16, i64 noundef %..i) #12
  unreachable

st_mult.exit.i:                                   ; preds = %16
  %22 = load ptr, ptr %0, align 8, !tbaa !13
  %23 = shl nuw i64 %..i, 4
  %24 = tail call ptr @xrealloc(ptr noundef %22, i64 noundef %23) #11
  store ptr %24, ptr %0, align 8, !tbaa !13
  %.pre19.i = load i64, ptr %10, align 8, !tbaa !4
  %.pre20.i = add i64 %.pre19.i, 1
  br label %string_list_append_nodup.exit

string_list_append_nodup.exit:                    ; preds = %._crit_edge.i, %st_mult.exit.i
  %.pre-phi.i = phi i64 [ %12, %._crit_edge.i ], [ %.pre20.i, %st_mult.exit.i ]
  %25 = phi i64 [ %11, %._crit_edge.i ], [ %.pre19.i, %st_mult.exit.i ]
  %26 = phi ptr [ %.pre.i, %._crit_edge.i ], [ %24, %st_mult.exit.i ]
  store i64 %.pre-phi.i, ptr %10, align 8, !tbaa !4
  %27 = getelementptr inbounds nuw %struct.string_list_item, ptr %26, i64 %25
  store ptr %9, ptr %27, align 8, !tbaa !14
  %28 = getelementptr inbounds nuw i8, ptr %27, i64 8
  store ptr null, ptr %28, align 8, !tbaa !20
  ret ptr %27
}